; Function Attrs: nofree norecurse nosync nounwind memory(read, inaccessiblemem: none) uwtable
define hidden zeroext i1 @lexbor_str_data_casecmp(ptr nocapture noundef readonly %0, ptr nocapture noundef readonly %1) local_unnamed_addr #7 {
  %3 = load i8, ptr %0, align 1
  %4 = zext i8 %3 to i64
  %5 = getelementptr inbounds [256 x i8], ptr @lexbor_str_res_map_lowercase, i64 0, i64 %4
  %6 = load i8, ptr %5, align 1
  %7 = load i8, ptr %1, align 1
  %8 = zext i8 %7 to i64
  %9 = getelementptr inbounds [256 x i8], ptr @lexbor_str_res_map_lowercase, i64 0, i64 %8
  %10 = load i8, ptr %9, align 1
  %.not9 = icmp eq i8 %6, %10
  %11 = icmp ne i8 %3, 0
  %or.cond.not10 = and i1 %11, %.not9
  br i1 %or.cond.not10, label %.lr.ph, label %._crit_edge

.lr.ph:                                           ; preds = %2, %.lr.ph
  %.012 = phi ptr [ %13, %.lr.ph ], [ %1, %2 ]
  %.0611 = phi ptr [ %12, %.lr.ph ], [ %0, %2 ]
  %12 = getelementptr inbounds i8, ptr %.0611, i64 1
  %13 = getelementptr inbounds i8, ptr %.012, i64 1
  %14 = load i8, ptr %12, align 1
  %15 = zext i8 %14 to i64
  %16 = getelementptr inbounds [256 x i8], ptr @lexbor_str_res_map_lowercase, i64 0, i64 %15
  %17 = load i8, ptr %16, align 1
  %18 = load i8, ptr %13, align 1
  %19 = zext i8 %18 to i64
  %20 = getelementptr inbounds [256 x i8], ptr @lexbor_str_res_map_lowercase, i64 0, i64 %19
  %21 = load i8, ptr %20, align 1
  %.not = icmp eq i8 %17, %21
  %22 = icmp ne i8 %14, 0
  %or.cond.not = and i1 %22, %.not
  br i1 %or.cond.not, label %.lr.ph, label %._crit_edge

._crit_edge:                                      ; preds = %.lr.ph, %2
  %.not.lcssa = phi i1 [ %.not9, %2 ], [ %.not, %.lr.ph ]
  ret i1 %.not.lcssa
}